; Function Attrs: mustprogress uwtable
define signext range(i8 0, 2) i8 @ucm_addMappingAuto(ptr noundef readonly captures(none) %0, i8 noundef signext %1, ptr noundef %2, ptr noundef captures(none) %3, ptr noundef readonly captures(none) %4, ptr noundef %5) local_unnamed_addr #2 {
  %7 = getelementptr inbounds nuw i8, ptr %3, i64 10
  %8 = load i8, ptr %7, align 2, !tbaa !22
  %9 = icmp eq i8 %8, 2
  br i1 %9, label %10, label %18

10:                                               ; preds = %6
  %11 = getelementptr inbounds nuw i8, ptr %3, i64 8
  %12 = load i8, ptr %11, align 4, !tbaa !3
  %13 = icmp sgt i8 %12, 1
  br i1 %13, label %14, label %18

14:                                               ; preds = %10
  %15 = load ptr, ptr @stderr, align 8, !tbaa !32
  %16 = tail call i64 @fwrite(ptr nonnull @.str.21, i64 67, i64 1, ptr %15) #18
  %17 = load ptr, ptr @stderr, align 8, !tbaa !32
  tail call fastcc void @_ZL12printMappingP9UCMappingPiPhP8_IO_FILE(ptr noundef nonnull %3, ptr noundef %4, ptr noundef %5, ptr noundef %17)
  br label %58

18:                                               ; preds = %10, %6
  %.not = icmp eq ptr %2, null
  br i1 %.not, label %.thread, label %19

19:                                               ; preds = %18
  %20 = getelementptr inbounds nuw i8, ptr %3, i64 9
  %21 = load i8, ptr %20, align 1, !tbaa !15
  %22 = sext i8 %21 to i32
  %23 = tail call i32 @ucm_countChars(ptr noundef nonnull %2, ptr noundef %5, i32 noundef %22)
  %24 = icmp slt i32 %23, 1
  br i1 %24, label %ucm_mappingType.exit, label %25

25:                                               ; preds = %19
  %26 = getelementptr inbounds nuw i8, ptr %3, i64 8
  %27 = load i8, ptr %26, align 4, !tbaa !3
  %28 = icmp eq i8 %27, 1
  %29 = icmp eq i32 %23, 1
  %or.cond.i = and i1 %29, %28
  br i1 %or.cond.i, label %30, label %.thread

30:                                               ; preds = %25
  %31 = load i8, ptr %7, align 2, !tbaa !22
  %32 = icmp slt i8 %31, 4
  br i1 %32, label %33, label %.thread

33:                                               ; preds = %30
  %34 = getelementptr inbounds nuw i8, ptr %2, i64 132104
  %35 = load i32, ptr %34, align 4, !tbaa !61
  %36 = icmp eq i32 %35, 1
  br i1 %36, label %53, label %37

37:                                               ; preds = %33
  switch i8 %31, label %44 [
    i8 2, label %38
    i8 1, label %41
  ]

38:                                               ; preds = %37
  %39 = load i8, ptr %20, align 1, !tbaa !15
  %40 = icmp ne i8 %39, 1
  %.old = icmp ne i8 %1, 0
  %or.cond34 = and i1 %.old, %40
  br i1 %or.cond34, label %54, label %.thread

41:                                               ; preds = %37
  %42 = load i8, ptr %5, align 1, !tbaa !17
  %43 = icmp eq i8 %42, 0
  br i1 %43, label %.thread, label %.thread18.i

44:                                               ; preds = %37
  %45 = icmp slt i8 %31, 2
  br i1 %45, label %.thread18.i, label %53

.thread18.i:                                      ; preds = %44, %41
  %46 = load i8, ptr %20, align 1, !tbaa !15
  %47 = icmp sgt i8 %46, 1
  br i1 %47, label %48, label %53

48:                                               ; preds = %.thread18.i
  %49 = load i8, ptr %5, align 1, !tbaa !17
  %50 = icmp ne i8 %49, 0
  %51 = icmp ne i8 %1, 0
  %or.cond = and i1 %51, %50
  br i1 %or.cond, label %54, label %.thread

ucm_mappingType.exit:                             ; preds = %19
  %52 = load ptr, ptr @stderr, align 8, !tbaa !32
  tail call fastcc void @_ZL12printMappingP9UCMappingPiPhP8_IO_FILE(ptr noundef nonnull %3, ptr noundef %4, ptr noundef %5, ptr noundef %52)
  br label %58

53:                                               ; preds = %.thread18.i, %44, %33
  %.old.old.not = icmp eq i8 %1, 0
  br i1 %.old.old.not, label %.thread, label %54

54:                                               ; preds = %38, %48, %53
  %55 = load ptr, ptr %0, align 8, !tbaa !58
  tail call void @ucm_addMapping(ptr noundef %55, ptr noundef nonnull %3, ptr noundef %4, ptr noundef %5)
  br label %58

.thread:                                          ; preds = %48, %41, %38, %30, %25, %18, %53
  %56 = getelementptr inbounds nuw i8, ptr %0, i64 8
  %57 = load ptr, ptr %56, align 8, !tbaa !63
  tail call void @ucm_addMapping(ptr noundef %57, ptr noundef nonnull %3, ptr noundef %4, ptr noundef %5)
  br label %58

58:                                               ; preds = %54, %.thread, %ucm_mappingType.exit, %14
  %.025 = phi i8 [ 0, %14 ], [ 0, %ucm_mappingType.exit ], [ 1, %.thread ], [ 1, %54 ]
  ret i8 %.025
}